target datalayout = "e-m:e-p270:32:32-p271:32:32-p272:64:64-i64:64-i128:128-f80:128-n8:16:32:64-S128"
target triple = "x86_64-pc-linux-gnu"

%"class.casadi::SparsityInternal" = type { %"class.casadi::SharedObjectInternal", %"class.std::vector", ptr }
%"class.casadi::SharedObjectInternal" = type { ptr, i64, ptr }
%"class.std::vector" = type { %"struct.std::_Vector_base" }
%"struct.std::_Vector_base" = type { %"struct.std::_Vector_base<long long, std::allocator<long long>>::_Vector_impl" }
%"struct.std::_Vector_base<long long, std::allocator<long long>>::_Vector_impl" = type { %"struct.std::_Vector_base<long long, std::allocator<long long>>::_Vector_impl_data" }
%"struct.std::_Vector_base<long long, std::allocator<long long>>::_Vector_impl_data" = type { ptr, ptr, ptr }
%"class.__gnu_cxx::__normal_iterator.15" = type { ptr }

; Function Attrs: mustprogress nounwind uwtable
define linkonce_odr hidden void @_ZN9__gnu_cxx17__normal_iteratorIPKxSt6vectorIxSaIxEEEC2ERKS2_(ptr noundef nonnull align 8 dereferenceable(8) %0, ptr noundef nonnull align 8 dereferenceable(8) %1) unnamed_addr #4 comdat align 2 {
  %3 = alloca ptr, align 8
  %4 = alloca ptr, align 8
  store ptr %0, ptr %3, align 8
  store ptr %1, ptr %4, align 8
  %5 = load ptr, ptr %3, align 8
  %6 = getelementptr inbounds %"class.__gnu_cxx::__normal_iterator.15", ptr %5, i32 0, i32 0
  %7 = load ptr, ptr %4, align 8
  %8 = load ptr, ptr %7, align 8
  store ptr %8, ptr %6, align 8
  ret void
}

; Function Attrs: mustprogress nounwind uwtable
define linkonce_odr hidden noundef nonnull align 8 dereferenceable(8) ptr @_ZNKSt6vectorIxSaIxEEixEm(ptr noundef nonnull align 8 dereferenceable(24) %0, i64 noundef %1) #4 comdat align 2 {
  %3 = alloca ptr, align 8
  %4 = alloca i64, align 8
  store ptr %0, ptr %3, align 8
  store i64 %1, ptr %4, align 8
  %5 = load ptr, ptr %3, align 8
  %6 = getelementptr inbounds %"struct.std::_Vector_base", ptr %5, i32 0, i32 0
  %7 = getelementptr inbounds %"struct.std::_Vector_base<long long, std::allocator<long long>>::_Vector_impl_data", ptr %6, i32 0, i32 0
  %8 = load ptr, ptr %7, align 8
  %9 = load i64, ptr %4, align 8
  %10 = getelementptr inbounds i64, ptr %8, i64 %9
  ret ptr %10
}

; Function Attrs: mustprogress nounwind uwtable
define linkonce_odr hidden noundef nonnull align 8 dereferenceable(8) ptr @_ZNK9__gnu_cxx17__normal_iteratorIPKxSt6vectorIxSaIxEEEdeEv(ptr noundef nonnull align 8 dereferenceable(8) %0) #4 comdat align 2 {
  %2 = alloca ptr, align 8
  store ptr %0, ptr %2, align 8
  %3 = load ptr, ptr %2, align 8
  %4 = getelementptr inbounds %"class.__gnu_cxx::__normal_iterator.15", ptr %3, i32 0, i32 0
  %5 = load ptr, ptr %4, align 8
  ret ptr %5
}

; Function Attrs: mustprogress nounwind uwtable
define linkonce_odr hidden ptr @_ZNKSt6vectorIxSaIxEE5beginEv(ptr noundef nonnull align 8 dereferenceable(24) %0) #4 comdat align 2 {
  %2 = alloca %"class.__gnu_cxx::__normal_iterator.15", align 8
  %3 = alloca ptr, align 8
  store ptr %0, ptr %3, align 8
  %4 = load ptr, ptr %3, align 8
  %5 = getelementptr inbounds %"struct.std::_Vector_base", ptr %4, i32 0, i32 0
  %6 = getelementptr inbounds %"struct.std::_Vector_base<long long, std::allocator<long long>>::_Vector_impl_data", ptr %5, i32 0, i32 0
  call void @_ZN9__gnu_cxx17__normal_iteratorIPKxSt6vectorIxSaIxEEEC2ERKS2_(ptr noundef nonnull align 8 dereferenceable(8) %2, ptr noundef nonnull align 8 dereferenceable(8) %6) #3
  %7 = getelementptr inbounds %"class.__gnu_cxx::__normal_iterator.15", ptr %2, i32 0, i32 0
  %8 = load ptr, ptr %7, align 8
  ret ptr %8
}

; Function Attrs: mustprogress nounwind uwtable
define linkonce_odr hidden noundef i64 @_ZNK6casadi16SparsityInternal5size2Ev(ptr noundef nonnull align 8 dereferenceable(56) %0) #4 comdat align 2 {
  %2 = alloca ptr, align 8
  store ptr %0, ptr %2, align 8
  %3 = load ptr, ptr %2, align 8
  %4 = getelementptr inbounds %"class.casadi::SparsityInternal", ptr %3, i32 0, i32 1
  %5 = call noundef nonnull align 8 dereferenceable(8) ptr @_ZNKSt6vectorIxSaIxEEixEm(ptr noundef nonnull align 8 dereferenceable(24) %4, i64 noundef 1) #3
  %6 = load i64, ptr %5, align 8
  ret i64 %6
}

; Function Attrs: mustprogress nounwind uwtable
define linkonce_odr hidden noundef nonnull align 8 dereferenceable(8) ptr @_ZNKSt6vectorIxSaIxEE5frontEv(ptr noundef nonnull align 8 dereferenceable(24) %0) #4 comdat align 2 {
  %2 = alloca ptr, align 8
  %3 = alloca %"class.__gnu_cxx::__normal_iterator.15", align 8
  store ptr %0, ptr %2, align 8
  %4 = load ptr, ptr %2, align 8
  %5 = call ptr @_ZNKSt6vectorIxSaIxEE5beginEv(ptr noundef nonnull align 8 dereferenceable(24) %4) #3
  %6 = getelementptr inbounds %"class.__gnu_cxx::__normal_iterator.15", ptr %3, i32 0, i32 0
  store ptr %5, ptr %6, align 8
  %7 = call noundef nonnull align 8 dereferenceable(8) ptr @_ZNK9__gnu_cxx17__normal_iteratorIPKxSt6vectorIxSaIxEEEdeEv(ptr noundef nonnull align 8 dereferenceable(8) %3) #3
  ret ptr %7
}

; Function Attrs: mustprogress nounwind uwtable
define linkonce_odr hidden noundef nonnull align 8 dereferenceable(8) ptr @_ZNSt6vectorIxSaIxEEixEm(ptr noundef nonnull align 8 dereferenceable(24) %0, i64 noundef %1) #4 comdat align 2 {
  %3 = alloca ptr, align 8
  %4 = alloca i64, align 8
  store ptr %0, ptr %3, align 8
  store i64 %1, ptr %4, align 8
  %5 = load ptr, ptr %3, align 8
  %6 = getelementptr inbounds %"struct.std::_Vector_base", ptr %5, i32 0, i32 0
  %7 = getelementptr inbounds %"struct.std::_Vector_base<long long, std::allocator<long long>>::_Vector_impl_data", ptr %6, i32 0, i32 0
  %8 = load ptr, ptr %7, align 8
  %9 = load i64, ptr %4, align 8
  %10 = getelementptr inbounds i64, ptr %8, i64 %9
  ret ptr %10
}

; Function Attrs: mustprogress nounwind uwtable
define linkonce_odr hidden noundef ptr @_ZNK6casadi16SparsityInternal3rowEv(ptr noundef nonnull align 8 dereferenceable(56) %0) #4 comdat align 2 {
  %2 = alloca ptr, align 8
  store ptr %0, ptr %2, align 8
  %3 = load ptr, ptr %2, align 8
  %4 = call noundef ptr @_ZNK6casadi16SparsityInternal6colindEv(ptr noundef nonnull align 8 dereferenceable(56) %3)
  %5 = call noundef i64 @_ZNK6casadi16SparsityInternal5size2Ev(ptr noundef nonnull align 8 dereferenceable(56) %3)
  %6 = getelementptr inbounds i64, ptr %4, i64 %5
  %7 = getelementptr inbounds i64, ptr %6, i64 1
  ret ptr %7
}

; Function Attrs: mustprogress nounwind uwtable
define linkonce_odr hidden noundef ptr @_ZNK6casadi16SparsityInternal6colindEv(ptr noundef nonnull align 8 dereferenceable(56) %0) #4 comdat align 2 {
  %2 = alloca ptr, align 8
  store ptr %0, ptr %2, align 8
  %3 = load ptr, ptr %2, align 8
  %4 = getelementptr inbounds %"class.casadi::SparsityInternal", ptr %3, i32 0, i32 1
  %5 = call noundef nonnull align 8 dereferenceable(8) ptr @_ZNKSt6vectorIxSaIxEE5frontEv(ptr noundef nonnull align 8 dereferenceable(24) %4) #3
  %6 = getelementptr inbounds i64, ptr %5, i64 2
  ret ptr %6
}

; Function Attrs: mustprogress uwtable
define void @_ZNK6casadi16SparsityInternal7augmentExRSt6vectorIxSaIxEEPxS4_S5_S5_S5_(ptr noundef nonnull align 8 dereferenceable(56) %0, i64 noundef %1, ptr noundef nonnull align 8 dereferenceable(24) %2, ptr noundef %3, ptr noundef nonnull align 8 dereferenceable(24) %4, ptr noundef %5, ptr noundef %6, ptr noundef %7) #5 align 2 {
  %9 = alloca ptr, align 8
  %10 = alloca i64, align 8
  %11 = alloca ptr, align 8
  %12 = alloca ptr, align 8
  %13 = alloca ptr, align 8
  %14 = alloca ptr, align 8
  %15 = alloca ptr, align 8
  %16 = alloca ptr, align 8
  %17 = alloca ptr, align 8
  %18 = alloca ptr, align 8
  %19 = alloca i64, align 8
  %20 = alloca i64, align 8
  %21 = alloca i64, align 8
  %22 = alloca i64, align 8
  %23 = alloca i64, align 8
  store ptr %0, ptr %9, align 8
  store i64 %1, ptr %10, align 8
  store ptr %2, ptr %11, align 8
  store ptr %3, ptr %12, align 8
  store ptr %4, ptr %13, align 8
  store ptr %5, ptr %14, align 8
  store ptr %6, ptr %15, align 8
  store ptr %7, ptr %16, align 8
  %24 = load ptr, ptr %9, align 8
  %25 = call noundef ptr @_ZNK6casadi16SparsityInternal6colindEv(ptr noundef nonnull align 8 dereferenceable(56) %24)
  store ptr %25, ptr %17, align 8
  %26 = call noundef ptr @_ZNK6casadi16SparsityInternal3rowEv(ptr noundef nonnull align 8 dereferenceable(56) %24)
  store ptr %26, ptr %18, align 8
  store i64 0, ptr %19, align 8
  store i64 -1, ptr %21, align 8
  store i64 0, ptr %22, align 8
  %27 = load i64, ptr %10, align 8
  %28 = load ptr, ptr %14, align 8
  %29 = getelementptr inbounds i64, ptr %28, i64 0
  store i64 %27, ptr %29, align 8
  br label %30

30:                                               ; preds = %161, %8
  %31 = load i64, ptr %22, align 8
  %32 = icmp sge i64 %31, 0
  br i1 %32, label %33, label %162

33:                                               ; preds = %30
  %34 = load ptr, ptr %14, align 8
  %35 = load i64, ptr %22, align 8
  %36 = getelementptr inbounds i64, ptr %34, i64 %35
  %37 = load i64, ptr %36, align 8
  store i64 %37, ptr %23, align 8
  %38 = load ptr, ptr %13, align 8
  %39 = load i64, ptr %23, align 8
  %40 = call noundef nonnull align 8 dereferenceable(8) ptr @_ZNSt6vectorIxSaIxEEixEm(ptr noundef nonnull align 8 dereferenceable(24) %38, i64 noundef %39) #3
  %41 = load i64, ptr %40, align 8
  %42 = load i64, ptr %10, align 8
  %43 = icmp ne i64 %41, %42
  br i1 %43, label %44, label %101

44:                                               ; preds = %33
  %45 = load i64, ptr %10, align 8
  %46 = load ptr, ptr %13, align 8
  %47 = load i64, ptr %23, align 8
  %48 = call noundef nonnull align 8 dereferenceable(8) ptr @_ZNSt6vectorIxSaIxEEixEm(ptr noundef nonnull align 8 dereferenceable(24) %46, i64 noundef %47) #3
  store i64 %45, ptr %48, align 8
  %49 = load ptr, ptr %12, align 8
  %50 = load i64, ptr %23, align 8
  %51 = getelementptr inbounds i64, ptr %49, i64 %50
  %52 = load i64, ptr %51, align 8
  store i64 %52, ptr %20, align 8
  br label %53

53:                                               ; preds = %78, %44
  %54 = load i64, ptr %20, align 8
  %55 = load ptr, ptr %17, align 8
  %56 = load i64, ptr %23, align 8
  %57 = add nsw i64 %56, 1
  %58 = getelementptr inbounds i64, ptr %55, i64 %57
  %59 = load i64, ptr %58, align 8
  %60 = icmp slt i64 %54, %59
  br i1 %60, label %61, label %65

61:                                               ; preds = %53
  %62 = load i64, ptr %19, align 8
  %63 = icmp ne i64 %62, 0
  %64 = xor i1 %63, true
  br label %65

65:                                               ; preds = %61, %53
  %66 = phi i1 [ false, %53 ], [ %64, %61 ]
  br i1 %66, label %67, label %81

67:                                               ; preds = %65
  %68 = load ptr, ptr %18, align 8
  %69 = load i64, ptr %20, align 8
  %70 = getelementptr inbounds i64, ptr %68, i64 %69
  %71 = load i64, ptr %70, align 8
  store i64 %71, ptr %21, align 8
  %72 = load ptr, ptr %11, align 8
  %73 = load i64, ptr %21, align 8
  %74 = call noundef nonnull align 8 dereferenceable(8) ptr @_ZNSt6vectorIxSaIxEEixEm(ptr noundef nonnull align 8 dereferenceable(24) %72, i64 noundef %73) #3
  %75 = load i64, ptr %74, align 8
  %76 = icmp eq i64 %75, -1
  %77 = zext i1 %76 to i64
  store i64 %77, ptr %19, align 8
  br label %78

78:                                               ; preds = %67
  %79 = load i64, ptr %20, align 8
  %80 = add nsw i64 %79, 1
  store i64 %80, ptr %20, align 8
  br label %53, !llvm.loop !99

81:                                               ; preds = %65
  %82 = load i64, ptr %20, align 8
  %83 = load ptr, ptr %12, align 8
  %84 = load i64, ptr %23, align 8
  %85 = getelementptr inbounds i64, ptr %83, i64 %84
  store i64 %82, ptr %85, align 8
  %86 = load i64, ptr %19, align 8
  %87 = icmp ne i64 %86, 0
  br i1 %87, label %88, label %93

88:                                               ; preds = %81
  %89 = load i64, ptr %21, align 8
  %90 = load ptr, ptr %15, align 8
  %91 = load i64, ptr %22, align 8
  %92 = getelementptr inbounds i64, ptr %90, i64 %91
  store i64 %89, ptr %92, align 8
  br label %162

93:                                               ; preds = %81
  %94 = load ptr, ptr %17, align 8
  %95 = load i64, ptr %23, align 8
  %96 = getelementptr inbounds i64, ptr %94, i64 %95
  %97 = load i64, ptr %96, align 8
  %98 = load ptr, ptr %16, align 8
  %99 = load i64, ptr %22, align 8
  %100 = getelementptr inbounds i64, ptr %98, i64 %99
  store i64 %97, ptr %100, align 8
  br label %101

101:                                              ; preds = %93, %33
  %102 = load ptr, ptr %16, align 8
  %103 = load i64, ptr %22, align 8
  %104 = getelementptr inbounds i64, ptr %102, i64 %103
  %105 = load i64, ptr %104, align 8
  store i64 %105, ptr %20, align 8
  br label %106

106:                                              ; preds = %147, %101
  %107 = load i64, ptr %20, align 8
  %108 = load ptr, ptr %17, align 8
  %109 = load i64, ptr %23, align 8
  %110 = add nsw i64 %109, 1
  %111 = getelementptr inbounds i64, ptr %108, i64 %110
  %112 = load i64, ptr %111, align 8
  %113 = icmp slt i64 %107, %112
  br i1 %113, label %114, label %150

114:                                              ; preds = %106
  %115 = load ptr, ptr %18, align 8
  %116 = load i64, ptr %20, align 8
  %117 = getelementptr inbounds i64, ptr %115, i64 %116
  %118 = load i64, ptr %117, align 8
  store i64 %118, ptr %21, align 8
  %119 = load ptr, ptr %13, align 8
  %120 = load ptr, ptr %11, align 8
  %121 = load i64, ptr %21, align 8
  %122 = call noundef nonnull align 8 dereferenceable(8) ptr @_ZNSt6vectorIxSaIxEEixEm(ptr noundef nonnull align 8 dereferenceable(24) %120, i64 noundef %121) #3
  %123 = load i64, ptr %122, align 8
  %124 = call noundef nonnull align 8 dereferenceable(8) ptr @_ZNSt6vectorIxSaIxEEixEm(ptr noundef nonnull align 8 dereferenceable(24) %119, i64 noundef %123) #3
  %125 = load i64, ptr %124, align 8
  %126 = load i64, ptr %10, align 8
  %127 = icmp eq i64 %125, %126
  br i1 %127, label %128, label %129

128:                                              ; preds = %114
  br label %147

129:                                              ; preds = %114
  %130 = load i64, ptr %20, align 8
  %131 = add nsw i64 %130, 1
  %132 = load ptr, ptr %16, align 8
  %133 = load i64, ptr %22, align 8
  %134 = getelementptr inbounds i64, ptr %132, i64 %133
  store i64 %131, ptr %134, align 8
  %135 = load i64, ptr %21, align 8
  %136 = load ptr, ptr %15, align 8
  %137 = load i64, ptr %22, align 8
  %138 = getelementptr inbounds i64, ptr %136, i64 %137
  store i64 %135, ptr %138, align 8
  %139 = load ptr, ptr %11, align 8
  %140 = load i64, ptr %21, align 8
  %141 = call noundef nonnull align 8 dereferenceable(8) ptr @_ZNSt6vectorIxSaIxEEixEm(ptr noundef nonnull align 8 dereferenceable(24) %139, i64 noundef %140) #3
  %142 = load i64, ptr %141, align 8
  %143 = load ptr, ptr %14, align 8
  %144 = load i64, ptr %22, align 8
  %145 = add nsw i64 %144, 1
  store i64 %145, ptr %22, align 8
  %146 = getelementptr inbounds i64, ptr %143, i64 %145
  store i64 %142, ptr %146, align 8
  br label %150

147:                                              ; preds = %128
  %148 = load i64, ptr %20, align 8
  %149 = add nsw i64 %148, 1
  store i64 %149, ptr %20, align 8
  br label %106, !llvm.loop !100

150:                                              ; preds = %129, %106
  %151 = load i64, ptr %20, align 8
  %152 = load ptr, ptr %17, align 8
  %153 = load i64, ptr %23, align 8
  %154 = add nsw i64 %153, 1
  %155 = getelementptr inbounds i64, ptr %152, i64 %154
  %156 = load i64, ptr %155, align 8
  %157 = icmp eq i64 %151, %156
  br i1 %157, label %158, label %161

158:                                              ; preds = %150
  %159 = load i64, ptr %22, align 8
  %160 = add nsw i64 %159, -1
  store i64 %160, ptr %22, align 8
  br label %161

161:                                              ; preds = %158, %150
  br label %30, !llvm.loop !101

162:                                              ; preds = %88, %30
  %163 = load i64, ptr %19, align 8
  %164 = icmp ne i64 %163, 0
  br i1 %164, label %165, label %185

165:                                              ; preds = %162
  %166 = load i64, ptr %22, align 8
  store i64 %166, ptr %20, align 8
  br label %167

167:                                              ; preds = %181, %165
  %168 = load i64, ptr %20, align 8
  %169 = icmp sge i64 %168, 0
  br i1 %169, label %170, label %184

170:                                              ; preds = %167
  %171 = load ptr, ptr %14, align 8
  %172 = load i64, ptr %20, align 8
  %173 = getelementptr inbounds i64, ptr %171, i64 %172
  %174 = load i64, ptr %173, align 8
  %175 = load ptr, ptr %11, align 8
  %176 = load ptr, ptr %15, align 8
  %177 = load i64, ptr %20, align 8
  %178 = getelementptr inbounds i64, ptr %176, i64 %177
  %179 = load i64, ptr %178, align 8
  %180 = call noundef nonnull align 8 dereferenceable(8) ptr @_ZNSt6vectorIxSaIxEEixEm(ptr noundef nonnull align 8 dereferenceable(24) %175, i64 noundef %179) #3
  store i64 %174, ptr %180, align 8
  br label %181

181:                                              ; preds = %170
  %182 = load i64, ptr %20, align 8
  %183 = add nsw i64 %182, -1
  store i64 %183, ptr %20, align 8
  br label %167, !llvm.loop !102

184:                                              ; preds = %167
  br label %185

185:                                              ; preds = %184, %162
  ret void
}