; Function Attrs: mustprogress nofree norecurse nosync nounwind memory(readwrite, inaccessiblemem: none) uwtable
define void @_ZNK6casadi16SparsityInternal7augmentExRSt6vectorIxSaIxEEPxS4_S5_S5_S5_(ptr nocapture noundef nonnull readonly align 8 dereferenceable(56) %0, i64 noundef %1, ptr nocapture noundef nonnull readonly align 8 dereferenceable(24) %2, ptr nocapture noundef %3, ptr nocapture noundef nonnull readonly align 8 dereferenceable(24) %4, ptr nocapture noundef %5, ptr nocapture noundef %6, ptr nocapture noundef %7) local_unnamed_addr #4 align 2 {
  %9 = getelementptr inbounds i8, ptr %0, i64 24
  %10 = load ptr, ptr %9, align 8
  %11 = getelementptr inbounds i8, ptr %10, i64 16
  %12 = getelementptr inbounds i8, ptr %10, i64 8
  %13 = load i64, ptr %12, align 8
  %14 = getelementptr inbounds i64, ptr %11, i64 %13
  %15 = getelementptr inbounds i8, ptr %14, i64 8
  store i64 %1, ptr %5, align 8
  %invariant.gep = getelementptr i8, ptr %10, i64 24
  br label %16

16:                                               ; preds = %8, %.loopexit
  %.068102 = phi i64 [ 0, %8 ], [ %spec.select, %.loopexit ]
  %17 = getelementptr inbounds i64, ptr %5, i64 %.068102
  %18 = load i64, ptr %17, align 8
  %19 = load ptr, ptr %4, align 8
  %20 = getelementptr inbounds i64, ptr %19, i64 %18
  %21 = load i64, ptr %20, align 8
  %.not = icmp eq i64 %21, %1
  br i1 %.not, label %._crit_edge114, label %22

._crit_edge114:                                   ; preds = %16
  %.phi.trans.insert = getelementptr inbounds i64, ptr %7, i64 %.068102
  %.pre = load i64, ptr %.phi.trans.insert, align 8
  br label %42

22:                                               ; preds = %16
  store i64 %1, ptr %20, align 8
  %23 = getelementptr inbounds i64, ptr %3, i64 %18
  %24 = load i64, ptr %23, align 8
  %25 = getelementptr i64, ptr %11, i64 %18
  %26 = getelementptr i8, ptr %25, i64 8
  %27 = load i64, ptr %26, align 8
  %28 = icmp slt i64 %24, %27
  br i1 %28, label %.lr.ph, label %._crit_edge.thread

.lr.ph:                                           ; preds = %22
  %29 = load ptr, ptr %2, align 8
  br label %30

30:                                               ; preds = %.lr.ph, %30
  %.07589 = phi i64 [ %24, %.lr.ph ], [ %36, %30 ]
  %31 = getelementptr inbounds i64, ptr %15, i64 %.07589
  %32 = load i64, ptr %31, align 8
  %33 = getelementptr inbounds i64, ptr %29, i64 %32
  %34 = load i64, ptr %33, align 8
  %35 = icmp ne i64 %34, -1
  %36 = add nsw i64 %.07589, 1
  %37 = icmp slt i64 %36, %27
  %38 = select i1 %37, i1 %35, i1 false
  br i1 %38, label %30, label %._crit_edge, !llvm.loop !131

._crit_edge:                                      ; preds = %30
  store i64 %36, ptr %23, align 8
  br i1 %35, label %._crit_edge.thread, label %.lr.ph105.preheader

.lr.ph105.preheader:                              ; preds = %._crit_edge
  %39 = getelementptr inbounds i64, ptr %6, i64 %.068102
  store i64 %32, ptr %39, align 8
  br label %.lr.ph105

._crit_edge.thread:                               ; preds = %22, %._crit_edge
  %40 = load i64, ptr %25, align 8
  %41 = getelementptr inbounds i64, ptr %7, i64 %.068102
  store i64 %40, ptr %41, align 8
  br label %42

42:                                               ; preds = %._crit_edge114, %._crit_edge.thread
  %43 = phi i64 [ %40, %._crit_edge.thread ], [ %.pre, %._crit_edge114 ]
  %44 = getelementptr inbounds i64, ptr %7, i64 %.068102
  %gep = getelementptr i64, ptr %invariant.gep, i64 %18
  %45 = load i64, ptr %gep, align 8
  %46 = icmp slt i64 %43, %45
  br i1 %46, label %.lr.ph97, label %.loopexit

.lr.ph97:                                         ; preds = %42
  %47 = load ptr, ptr %2, align 8
  %48 = load ptr, ptr %4, align 8
  br label %49

49:                                               ; preds = %.lr.ph97, %65
  %.17695 = phi i64 [ %43, %.lr.ph97 ], [ %57, %65 ]
  %50 = getelementptr inbounds i64, ptr %15, i64 %.17695
  %51 = load i64, ptr %50, align 8
  %52 = getelementptr inbounds i64, ptr %47, i64 %51
  %53 = load i64, ptr %52, align 8
  %54 = getelementptr inbounds i64, ptr %48, i64 %53
  %55 = load i64, ptr %54, align 8
  %56 = icmp eq i64 %55, %1
  %57 = add i64 %.17695, 1
  br i1 %56, label %65, label %58

58:                                               ; preds = %49
  store i64 %57, ptr %44, align 8
  %59 = getelementptr inbounds i64, ptr %6, i64 %.068102
  store i64 %51, ptr %59, align 8
  %60 = load ptr, ptr %2, align 8
  %61 = getelementptr inbounds i64, ptr %60, i64 %51
  %62 = load i64, ptr %61, align 8
  %63 = add nuw nsw i64 %.068102, 1
  %64 = getelementptr inbounds i64, ptr %5, i64 %63
  store i64 %62, ptr %64, align 8
  %.pre115 = load i64, ptr %gep, align 8
  br label %.loopexit

65:                                               ; preds = %49
  %exitcond.not = icmp eq i64 %57, %45
  br i1 %exitcond.not, label %.loopexit, label %49, !llvm.loop !132

.loopexit:                                        ; preds = %65, %42, %58
  %66 = phi i64 [ %.pre115, %58 ], [ %45, %42 ], [ %45, %65 ]
  %.17686 = phi i64 [ %.17695, %58 ], [ %43, %42 ], [ %45, %65 ]
  %.169 = phi i64 [ %63, %58 ], [ %.068102, %42 ], [ %.068102, %65 ]
  %67 = icmp eq i64 %.17686, %66
  %68 = sext i1 %67 to i64
  %spec.select = add nsw i64 %.169, %68
  %69 = icmp slt i64 %spec.select, 0
  br i1 %69, label %.critedge, label %16, !llvm.loop !133

.lr.ph105:                                        ; preds = %.lr.ph105.preheader, %.lr.ph105
  %.277103 = phi i64 [ %76, %.lr.ph105 ], [ %.068102, %.lr.ph105.preheader ]
  %70 = getelementptr inbounds i64, ptr %5, i64 %.277103
  %71 = load i64, ptr %70, align 8
  %72 = getelementptr inbounds i64, ptr %6, i64 %.277103
  %73 = load i64, ptr %72, align 8
  %74 = load ptr, ptr %2, align 8
  %75 = getelementptr inbounds i64, ptr %74, i64 %73
  store i64 %71, ptr %75, align 8
  %76 = add nsw i64 %.277103, -1
  %77 = icmp sgt i64 %.277103, 0
  br i1 %77, label %.lr.ph105, label %.critedge, !llvm.loop !134

.critedge:                                        ; preds = %.loopexit, %.lr.ph105
  ret void
}